; Function Attrs: nounwind uwtable
define range(i32 0, 2) i32 @Sbd_ManCutIsTopo(ptr noundef %0, ptr noundef %1, ptr noundef readonly captures(none) %2, i32 noundef %3) local_unnamed_addr #0 {
  tail call void @Gia_ManIncrementTravId(ptr noundef %0) #17
  %5 = getelementptr i8, ptr %2, i64 4
  %.val1516 = load i32, ptr %5, align 4, !tbaa !24
  %6 = icmp sgt i32 %.val1516, 0
  br i1 %6, label %.lr.ph, label %.critedge

.lr.ph:                                           ; preds = %4
  %7 = getelementptr i8, ptr %2, i64 8
  %.val = load ptr, ptr %7, align 8, !tbaa !28
  %8 = getelementptr i8, ptr %0, i64 176
  %9 = getelementptr i8, ptr %0, i64 616
  %.val14 = load ptr, ptr %9, align 8, !tbaa !50
  %.val13.pre = load i32, ptr %8, align 8, !tbaa !34
  br label %10

10:                                               ; preds = %.lr.ph, %10
  %indvars.iv = phi i64 [ 0, %.lr.ph ], [ %indvars.iv.next, %10 ]
  %11 = getelementptr inbounds nuw i32, ptr %.val, i64 %indvars.iv
  %12 = load i32, ptr %11, align 4, !tbaa !33
  %13 = sext i32 %12 to i64
  %14 = getelementptr inbounds i32, ptr %.val14, i64 %13
  store i32 %.val13.pre, ptr %14, align 4, !tbaa !33
  %indvars.iv.next = add nuw nsw i64 %indvars.iv, 1
  %.val15 = load i32, ptr %5, align 4, !tbaa !24
  %15 = sext i32 %.val15 to i64
  %16 = icmp slt i64 %indvars.iv.next, %15
  br i1 %16, label %10, label %.critedge, !llvm.loop !52

.critedge:                                        ; preds = %10, %4
  %17 = tail call i32 @Sbd_ManCutIsTopo_rec(ptr noundef %0, ptr noundef %1, i32 noundef %3)
  %18 = icmp eq i32 %17, 0
  br i1 %18, label %19, label %21

19:                                               ; preds = %.critedge
  %20 = tail call i32 (ptr, ...) @printf(ptr noundef nonnull dereferenceable(1) @.str, i32 noundef %3)
  br label %21

21:                                               ; preds = %19, %.critedge
  ret i32 %17
}